; Function Attrs: mustprogress nofree norecurse nosync nounwind memory(readwrite, inaccessiblemem: none) uwtable
define hidden void @_ZN5zxing8BitArray7ReverseC2ENS_3RefIS0_EE(ptr noundef nonnull writeonly align 8 captures(none) dereferenceable(8) initializes((0, 8)) %0, ptr noundef readonly captures(none) %1) unnamed_addr #6 align 2 personality ptr @__gxx_personality_v0 {
  store ptr null, ptr %0, align 8, !tbaa !49
  %3 = load ptr, ptr %1, align 8, !tbaa !49
  %.not.i.i = icmp eq ptr %3, null
  br i1 %.not.i.i, label %_ZN5zxing3RefINS_8BitArrayEEC2ERKS2_.exit, label %4

4:                                                ; preds = %2
  %5 = getelementptr inbounds nuw i8, ptr %3, i64 8
  %6 = load i32, ptr %5, align 8, !tbaa !3
  %7 = add i32 %6, 1
  store i32 %7, ptr %5, align 8, !tbaa !3
  br label %_ZN5zxing3RefINS_8BitArrayEEC2ERKS2_.exit

_ZN5zxing3RefINS_8BitArrayEEC2ERKS2_.exit:        ; preds = %2, %4
  store ptr %3, ptr %0, align 8, !tbaa !49
  %8 = getelementptr inbounds nuw i8, ptr %3, i64 32
  %9 = load ptr, ptr %8, align 8, !tbaa !17
  %10 = getelementptr inbounds nuw i8, ptr %9, i64 16
  %11 = load ptr, ptr %10, align 8, !tbaa !18
  %12 = getelementptr inbounds nuw i8, ptr %3, i64 12
  %13 = load i32, ptr %12, align 4, !tbaa !10
  %14 = icmp sgt i32 %13, 1
  br i1 %14, label %.lr.ph.preheader.i, label %_ZN5zxing8BitArray7reverseEv.exit

.lr.ph.preheader.i:                               ; preds = %_ZN5zxing3RefINS_8BitArrayEEC2ERKS2_.exit
  %15 = lshr i32 %13, 1
  %16 = zext nneg i32 %13 to i64
  %wide.trip.count.i = zext nneg i32 %15 to i64
  %17 = getelementptr i8, ptr %11, i64 %16
  br label %.lr.ph.i

.lr.ph.i:                                         ; preds = %.lr.ph.i, %.lr.ph.preheader.i
  %indvars.iv.i = phi i64 [ 0, %.lr.ph.preheader.i ], [ %indvars.iv.next.i, %.lr.ph.i ]
  %18 = getelementptr inbounds nuw i8, ptr %11, i64 %indvars.iv.i
  %19 = load i8, ptr %18, align 1, !tbaa !38, !range !40, !noundef !41
  %20 = xor i64 %indvars.iv.i, -1
  %21 = getelementptr i8, ptr %17, i64 %20
  %22 = load i8, ptr %21, align 1, !tbaa !38, !range !40, !noundef !41
  store i8 %22, ptr %18, align 1, !tbaa !38
  store i8 %19, ptr %21, align 1, !tbaa !38
  %indvars.iv.next.i = add nuw nsw i64 %indvars.iv.i, 1
  %exitcond.not.i = icmp eq i64 %indvars.iv.next.i, %wide.trip.count.i
  br i1 %exitcond.not.i, label %_ZN5zxing8BitArray7reverseEv.exit, label %.lr.ph.i, !llvm.loop !42

_ZN5zxing8BitArray7reverseEv.exit:                ; preds = %.lr.ph.i, %_ZN5zxing3RefINS_8BitArrayEEC2ERKS2_.exit
  ret void
}